target datalayout = "e-m:e-p270:32:32-p271:32:32-p272:64:64-i64:64-i128:128-f80:128-n8:16:32:64-S128"
target triple = "x86_64-unknown-linux-gnu"

%struct.UResourceBundle = type { ptr, ptr, ptr, ptr, ptr, [64 x i8], i32, i32, i8, i8, i32, i32, i32, i32 }
%"class.icu_75::StackUResourceBundle" = type { %struct.UResourceBundle }
%"class.icu_75::ResourceTracer" = type { i8 }
%"class.icu_75::UObject" = type { ptr }
%"class.icu_75::ResourceDataValue" = type <{ %"class.icu_75::ResourceValue", ptr, ptr, i32, %"class.icu_75::ResourceTracer", [3 x i8] }>
%"class.icu_75::ResourceValue" = type { %"class.icu_75::UObject" }

@_ZTVN6icu_757UObjectE = external unnamed_addr constant { [5 x ptr] }, align 8
@_ZTVN6icu_7517ResourceDataValueE = external unnamed_addr constant { [18 x ptr] }, align 8
@_ZTVN6icu_7513ResourceValueE = external unnamed_addr constant { [18 x ptr] }, align 8
@_ZN6icu_7520StackUResourceBundleC1Ev = unnamed_addr alias void (ptr), ptr @_ZN6icu_7520StackUResourceBundleC2Ev
@_ZN6icu_7520StackUResourceBundleD1Ev = unnamed_addr alias void (ptr), ptr @_ZN6icu_7520StackUResourceBundleD2Ev

; Function Attrs: mustprogress nounwind uwtable
define linkonce_odr void @_ZN6icu_757UObjectC2Ev(ptr noundef nonnull align 8 dereferenceable(8) %this) unnamed_addr #0 comdat align 2 {
entry:
  %this.addr = alloca ptr, align 8
  store ptr %this, ptr %this.addr, align 8
  %this1 = load ptr, ptr %this.addr, align 8
  store ptr getelementptr inbounds ({ [5 x ptr] }, ptr @_ZTVN6icu_757UObjectE, i32 0, i32 0, i32 2), ptr %this1, align 8
  ret void
}

; Function Attrs: mustprogress nounwind uwtable
define linkonce_odr void @_ZN6icu_7514ResourceTracerC2Ev(ptr noundef nonnull align 1 dereferenceable(1) %this) unnamed_addr #0 comdat align 2 {
entry:
  %this.addr = alloca ptr, align 8
  store ptr %this, ptr %this.addr, align 8
  ret void
}

; Function Attrs: mustprogress nounwind uwtable
define linkonce_odr void @_ZN6icu_7513ResourceValueC2Ev(ptr noundef nonnull align 8 dereferenceable(8) %this) unnamed_addr #0 comdat align 2 {
entry:
  %this.addr = alloca ptr, align 8
  store ptr %this, ptr %this.addr, align 8
  %this1 = load ptr, ptr %this.addr, align 8
  call void @_ZN6icu_757UObjectC2Ev(ptr noundef nonnull align 8 dereferenceable(8) %this1) #10
  store ptr getelementptr inbounds ({ [18 x ptr] }, ptr @_ZTVN6icu_7513ResourceValueE, i32 0, i32 0, i32 2), ptr %this1, align 8
  ret void
}

; Function Attrs: mustprogress uwtable
define linkonce_odr void @_ZN6icu_7517ResourceDataValueC2Ev(ptr noundef nonnull align 8 dereferenceable(29) %this) unnamed_addr #1 comdat align 2 personality ptr @__gxx_personality_v0 {
entry:
  %this.addr = alloca ptr, align 8
  %exn.slot = alloca ptr, align 8
  %ehselector.slot = alloca i32, align 4
  store ptr %this, ptr %this.addr, align 8
  %this1 = load ptr, ptr %this.addr, align 8
  call void @_ZN6icu_7513ResourceValueC2Ev(ptr noundef nonnull align 8 dereferenceable(8) %this1)
  store ptr getelementptr inbounds ({ [18 x ptr] }, ptr @_ZTVN6icu_7517ResourceDataValueE, i32 0, i32 0, i32 2), ptr %this1, align 8
  %pResData = getelementptr inbounds %"class.icu_75::ResourceDataValue", ptr %this1, i32 0, i32 1
  store ptr null, ptr %pResData, align 8
  %validLocaleDataEntry = getelementptr inbounds %"class.icu_75::ResourceDataValue", ptr %this1, i32 0, i32 2
  store ptr null, ptr %validLocaleDataEntry, align 8
  %res = getelementptr inbounds %"class.icu_75::ResourceDataValue", ptr %this1, i32 0, i32 3
  store i32 -1, ptr %res, align 8
  %fTraceInfo = getelementptr inbounds %"class.icu_75::ResourceDataValue", ptr %this1, i32 0, i32 4
  invoke void @_ZN6icu_7514ResourceTracerC2Ev(ptr noundef nonnull align 1 dereferenceable(1) %fTraceInfo)
          to label %invoke.cont unwind label %lpad

invoke.cont:                                      ; preds = %entry
  ret void

lpad:                                             ; preds = %entry
  %0 = landingpad { ptr, i32 }
          cleanup
  %1 = extractvalue { ptr, i32 } %0, 0
  store ptr %1, ptr %exn.slot, align 8
  %2 = extractvalue { ptr, i32 } %0, 1
  store i32 %2, ptr %ehselector.slot, align 4
  call void @_ZN6icu_7513ResourceValueD2Ev(ptr noundef nonnull align 8 dereferenceable(8) %this1) #10
  br label %eh.resume

eh.resume:                                        ; preds = %lpad
  %exn = load ptr, ptr %exn.slot, align 8
  %sel = load i32, ptr %ehselector.slot, align 4
  %lpad.val = insertvalue { ptr, i32 } poison, ptr %exn, 0
  %lpad.val2 = insertvalue { ptr, i32 } %lpad.val, i32 %sel, 1
  resume { ptr, i32 } %lpad.val2
}

; Function Attrs: mustprogress nounwind uwtable
define linkonce_odr noundef ptr @_ZN6icu_7520StackUResourceBundle8getAliasEv(ptr noundef nonnull align 8 dereferenceable(136) %this) #0 comdat align 2 {
entry:
  %this.addr = alloca ptr, align 8
  store ptr %this, ptr %this.addr, align 8
  %this1 = load ptr, ptr %this.addr, align 8
  %bundle = getelementptr inbounds %"class.icu_75::StackUResourceBundle", ptr %this1, i32 0, i32 0
  ret ptr %bundle
}

; Function Attrs: mustprogress nounwind uwtable
define internal noundef signext i8 @_ZL9U_FAILURE10UErrorCode(i32 noundef %code) #0 {
entry:
  %code.addr = alloca i32, align 4
  store i32 %code, ptr %code.addr, align 4
  %0 = load i32, ptr %code.addr, align 4
  %cmp = icmp sgt i32 %0, 0
  %conv = zext i1 %cmp to i8
  ret i8 %conv
}

; Function Attrs: mustprogress uwtable
define void @ures_getAllItemsWithFallback_75(ptr noundef %bundle, ptr noundef %path, ptr noundef nonnull align 8 dereferenceable(8) %sink, ptr noundef nonnull align 4 dereferenceable(4) %errorCode) #1 personality ptr @__gxx_personality_v0 {
entry:
  %bundle.addr = alloca ptr, align 8
  %path.addr = alloca ptr, align 8
  %sink.addr = alloca ptr, align 8
  %errorCode.addr = alloca ptr, align 8
  %stackBundle = alloca %"class.icu_75::StackUResourceBundle", align 8
  %rb = alloca ptr, align 8
  %exn.slot = alloca ptr, align 8
  %ehselector.slot = alloca i32, align 4
  %cleanup.dest.slot = alloca i32, align 4
  %value = alloca %"class.icu_75::ResourceDataValue", align 8
  store ptr %bundle, ptr %bundle.addr, align 8
  store ptr %path, ptr %path.addr, align 8
  store ptr %sink, ptr %sink.addr, align 8
  store ptr %errorCode, ptr %errorCode.addr, align 8
  %0 = load ptr, ptr %errorCode.addr, align 8
  %1 = load i32, ptr %0, align 4
  %call = call noundef signext i8 @_ZL9U_FAILURE10UErrorCode(i32 noundef %1)
  %tobool = icmp ne i8 %call, 0
  br i1 %tobool, label %if.then, label %if.end

if.then:                                          ; preds = %entry
  br label %cleanup.cont

if.end:                                           ; preds = %entry
  %2 = load ptr, ptr %path.addr, align 8
  %cmp = icmp eq ptr %2, null
  br i1 %cmp, label %if.then1, label %if.end2

if.then1:                                         ; preds = %if.end
  %3 = load ptr, ptr %errorCode.addr, align 8
  store i32 1, ptr %3, align 4
  br label %cleanup.cont

if.end2:                                          ; preds = %if.end
  call void @_ZN6icu_7520StackUResourceBundleC1Ev(ptr noundef nonnull align 8 dereferenceable(136) %stackBundle)
  %4 = load ptr, ptr %path.addr, align 8
  %5 = load i8, ptr %4, align 1
  %conv = sext i8 %5 to i32
  %cmp3 = icmp eq i32 %conv, 0
  br i1 %cmp3, label %if.then4, label %if.else

if.then4:                                         ; preds = %if.end2
  %6 = load ptr, ptr %bundle.addr, align 8
  store ptr %6, ptr %rb, align 8
  br label %if.end13

if.else:                                          ; preds = %if.end2
  %7 = load ptr, ptr %bundle.addr, align 8
  %8 = load ptr, ptr %path.addr, align 8
  %call5 = invoke noundef ptr @_ZN6icu_7520StackUResourceBundle8getAliasEv(ptr noundef nonnull align 8 dereferenceable(136) %stackBundle)
          to label %invoke.cont unwind label %lpad

invoke.cont:                                      ; preds = %if.else
  %9 = load ptr, ptr %errorCode.addr, align 8
  %call7 = invoke ptr @ures_getByKeyWithFallback_75(ptr noundef %7, ptr noundef %8, ptr noundef %call5, ptr noundef %9)
          to label %invoke.cont6 unwind label %lpad

invoke.cont6:                                     ; preds = %invoke.cont
  store ptr %call7, ptr %rb, align 8
  %10 = load ptr, ptr %errorCode.addr, align 8
  %11 = load i32, ptr %10, align 4
  %call9 = invoke noundef signext i8 @_ZL9U_FAILURE10UErrorCode(i32 noundef %11)
          to label %invoke.cont8 unwind label %lpad

invoke.cont8:                                     ; preds = %invoke.cont6
  %tobool10 = icmp ne i8 %call9, 0
  br i1 %tobool10, label %if.then11, label %if.end12

if.then11:                                        ; preds = %invoke.cont8
  store i32 1, ptr %cleanup.dest.slot, align 4
  br label %cleanup

lpad:                                             ; preds = %if.end13, %invoke.cont6, %invoke.cont, %if.else
  %12 = landingpad { ptr, i32 }
          cleanup
  %13 = extractvalue { ptr, i32 } %12, 0
  store ptr %13, ptr %exn.slot, align 8
  %14 = extractvalue { ptr, i32 } %12, 1
  store i32 %14, ptr %ehselector.slot, align 4
  br label %ehcleanup

if.end12:                                         ; preds = %invoke.cont8
  br label %if.end13

if.end13:                                         ; preds = %if.end12, %if.then4
  invoke void @_ZN6icu_7517ResourceDataValueC2Ev(ptr noundef nonnull align 8 dereferenceable(29) %value)
          to label %invoke.cont14 unwind label %lpad

invoke.cont14:                                    ; preds = %if.end13
  %15 = load ptr, ptr %rb, align 8
  %16 = load ptr, ptr %sink.addr, align 8
  %17 = load ptr, ptr %errorCode.addr, align 8
  invoke void @_ZN12_GLOBAL__N_123getAllItemsWithFallbackEPK15UResourceBundleRN6icu_7517ResourceDataValueERNS3_12ResourceSinkER10UErrorCode(ptr noundef %15, ptr noundef nonnull align 8 dereferenceable(29) %value, ptr noundef nonnull align 8 dereferenceable(8) %16, ptr noundef nonnull align 4 dereferenceable(4) %17)
          to label %invoke.cont16 unwind label %lpad15

invoke.cont16:                                    ; preds = %invoke.cont14
  call void @_ZN6icu_7517ResourceDataValueD1Ev(ptr noundef nonnull align 8 dereferenceable(29) %value) #10
  store i32 0, ptr %cleanup.dest.slot, align 4
  br label %cleanup

cleanup:                                          ; preds = %invoke.cont16, %if.then11
  call void @_ZN6icu_7520StackUResourceBundleD1Ev(ptr noundef nonnull align 8 dereferenceable(136) %stackBundle) #10
  %cleanup.dest = load i32, ptr %cleanup.dest.slot, align 4
  switch i32 %cleanup.dest, label %unreachable [
    i32 0, label %cleanup.cont
    i32 1, label %cleanup.cont
  ]

cleanup.cont:                                     ; preds = %cleanup, %cleanup, %if.then1, %if.then
  ret void

lpad15:                                           ; preds = %invoke.cont14
  %18 = landingpad { ptr, i32 }
          cleanup
  %19 = extractvalue { ptr, i32 } %18, 0
  store ptr %19, ptr %exn.slot, align 8
  %20 = extractvalue { ptr, i32 } %18, 1
  store i32 %20, ptr %ehselector.slot, align 4
  call void @_ZN6icu_7517ResourceDataValueD1Ev(ptr noundef nonnull align 8 dereferenceable(29) %value) #10
  br label %ehcleanup

ehcleanup:                                        ; preds = %lpad15, %lpad
  call void @_ZN6icu_7520StackUResourceBundleD1Ev(ptr noundef nonnull align 8 dereferenceable(136) %stackBundle) #10
  br label %eh.resume

eh.resume:                                        ; preds = %ehcleanup
  %exn = load ptr, ptr %exn.slot, align 8
  %sel = load i32, ptr %ehselector.slot, align 4
  %lpad.val = insertvalue { ptr, i32 } poison, ptr %exn, 0
  %lpad.val17 = insertvalue { ptr, i32 } %lpad.val, i32 %sel, 1
  resume { ptr, i32 } %lpad.val17

unreachable:                                      ; preds = %cleanup
  unreachable
}