; Function Attrs: mustprogress uwtable
define void @ures_getAllItemsWithFallback_75(ptr noundef %bundle, ptr noundef %path, ptr noundef nonnull align 8 dereferenceable(8) %sink, ptr noundef nonnull align 4 dereferenceable(4) %errorCode) local_unnamed_addr #1 personality ptr @__gxx_personality_v0 {
entry:
  %stackBundle = alloca %"class.icu_75::StackUResourceBundle", align 8
  %value = alloca %"class.icu_75::ResourceDataValue", align 8
  %0 = load i32, ptr %errorCode, align 4
  %cmp.i = icmp slt i32 %0, 1
  br i1 %cmp.i, label %if.end, label %cleanup.cont

if.end:                                           ; preds = %entry
  %cmp = icmp eq ptr %path, null
  br i1 %cmp, label %if.then1, label %if.end2

if.then1:                                         ; preds = %if.end
  store i32 1, ptr %errorCode, align 4
  br label %cleanup.cont

if.end2:                                          ; preds = %if.end
  call void @_ZN6icu_7520StackUResourceBundleC1Ev(ptr noundef nonnull align 8 dereferenceable(136) %stackBundle)
  %1 = load i8, ptr %path, align 1
  %cmp3 = icmp eq i8 %1, 0
  br i1 %cmp3, label %invoke.cont14, label %if.else

if.else:                                          ; preds = %if.end2
  %call7 = invoke ptr @ures_getByKeyWithFallback_75(ptr noundef %bundle, ptr noundef nonnull %path, ptr noundef nonnull %stackBundle, ptr noundef nonnull %errorCode)
          to label %invoke.cont6 unwind label %lpad

invoke.cont6:                                     ; preds = %if.else
  %2 = load i32, ptr %errorCode, align 4
  %cmp.i9 = icmp slt i32 %2, 1
  br i1 %cmp.i9, label %invoke.cont14, label %cleanup

lpad:                                             ; preds = %if.else
  %3 = landingpad { ptr, i32 }
          cleanup
  br label %ehcleanup

invoke.cont14:                                    ; preds = %invoke.cont6, %if.end2
  %rb.0 = phi ptr [ %call7, %invoke.cont6 ], [ %bundle, %if.end2 ]
  store ptr getelementptr inbounds ({ [18 x ptr] }, ptr @_ZTVN6icu_7517ResourceDataValueE, i64 0, i32 0, i64 2), ptr %value, align 8
  %pResData.i = getelementptr inbounds i8, ptr %value, i64 8
  %res.i = getelementptr inbounds i8, ptr %value, i64 24
  call void @llvm.memset.p0.i64(ptr noundef nonnull align 8 dereferenceable(16) %pResData.i, i8 0, i64 16, i1 false)
  store i32 -1, ptr %res.i, align 8
  invoke fastcc void @_ZN12_GLOBAL__N_123getAllItemsWithFallbackEPK15UResourceBundleRN6icu_7517ResourceDataValueERNS3_12ResourceSinkER10UErrorCode(ptr noundef %rb.0, ptr noundef nonnull align 8 dereferenceable(29) %value, ptr noundef nonnull align 8 dereferenceable(8) %sink, ptr noundef nonnull align 4 dereferenceable(4) %errorCode)
          to label %invoke.cont16 unwind label %lpad15

invoke.cont16:                                    ; preds = %invoke.cont14
  call void @_ZN6icu_7517ResourceDataValueD1Ev(ptr noundef nonnull align 8 dereferenceable(29) %value) #20
  br label %cleanup

cleanup:                                          ; preds = %invoke.cont6, %invoke.cont16
  call void @_ZN6icu_7520StackUResourceBundleD1Ev(ptr noundef nonnull align 8 dereferenceable(136) %stackBundle) #20
  br label %cleanup.cont

cleanup.cont:                                     ; preds = %entry, %cleanup, %if.then1
  ret void

lpad15:                                           ; preds = %invoke.cont14
  %4 = landingpad { ptr, i32 }
          cleanup
  call void @_ZN6icu_7517ResourceDataValueD1Ev(ptr noundef nonnull align 8 dereferenceable(29) %value) #20
  br label %ehcleanup

ehcleanup:                                        ; preds = %lpad15, %lpad
  %.pn = phi { ptr, i32 } [ %4, %lpad15 ], [ %3, %lpad ]
  call void @_ZN6icu_7520StackUResourceBundleD1Ev(ptr noundef nonnull align 8 dereferenceable(136) %stackBundle) #20
  resume { ptr, i32 } %.pn
}